target datalayout = "e-m:e-p270:32:32-p271:32:32-p272:64:64-i64:64-i128:128-f80:128-n8:16:32:64-S128"
target triple = "x86_64-pc-linux-gnu"

%struct.xcgroup_ns_t = type { ptr, ptr, ptr, ptr }
%struct.xcgroup_t = type { ptr, ptr, ptr, i32, i32, i32 }
%struct.slurm_conf_t = type { i64, ptr, i16, ptr, ptr, ptr, ptr, ptr, i16, ptr, ptr, ptr, ptr, ptr, ptr, ptr, i16, ptr, ptr, ptr, ptr, i16, ptr, ptr, ptr, i64, ptr, ptr, ptr, ptr, i16, ptr, ptr, i16, i32, ptr, i32, ptr, i32, i32, ptr, ptr, i64, i64, ptr, i16, i16, ptr, i32, i32, ptr, i32, ptr, i32, i16, i16, i16, ptr, i16, i16, ptr, ptr, i32, i16, i16, ptr, i32, i16, ptr, ptr, ptr, ptr, i16, ptr, ptr, ptr, ptr, i32, ptr, ptr, ptr, ptr, i16, i16, ptr, i32, i32, i32, i16, i16, ptr, ptr, i16, ptr, ptr, i32, i32, i32, i32, i32, i64, i32, i32, i16, ptr, ptr, i32, ptr, ptr, ptr, i16, i32, ptr, ptr, i16, ptr, ptr, i32, i16, ptr, ptr, ptr, ptr, i32, i32, i16, i16, i32, ptr, i16, ptr, i32, i32, i32, i32, i32, i32, ptr, i16, ptr, ptr, i32, i16, ptr, i32, i16, i16, ptr, ptr, ptr, i16, ptr, ptr, ptr, ptr, i16, i16, ptr, i16, ptr, i16, ptr, i16, ptr, i16, ptr, ptr, ptr, ptr, i16, ptr, ptr, ptr, i32, ptr, i32, ptr, ptr, i16, ptr, ptr, i32, i16, ptr, ptr, i16, i16, ptr, i16, ptr, ptr, ptr, i32, ptr, i16, i16, ptr, ptr, ptr, ptr, ptr, ptr, ptr, ptr, i16, i32, i16, ptr, ptr, ptr, ptr, i32, ptr, ptr, ptr, i16, ptr, ptr, ptr, i16, ptr, i16, ptr, i16, i16, ptr }

@plugin_type = dso_local constant [10 x i8] c"cgroup/v1\00", align 1
@g_cg_name = dso_local global [5 x ptr] [ptr @.str, ptr @.str.1, ptr @.str.2, ptr @.str.3, ptr @.str.4], align 16
@g_cg_ns = internal global [5 x %struct.xcgroup_ns_t] zeroinitializer, align 16
@int_cg = internal global [5 x [9 x %struct.xcgroup_t]] zeroinitializer, align 16
@.str.9 = private unnamed_addr constant [34 x i8] c"cgroup subsystem %u not supported\00", align 1
@.str.16 = private unnamed_addr constant [39 x i8] c"This operation is not supported for %s\00", align 1
@.str.17 = private unnamed_addr constant [37 x i8] c"Unable to move pid %d to root cgroup\00", align 1
@slurm_conf = external global %struct.slurm_conf_t, align 8
@.str.18 = private unnamed_addr constant [78 x i8] c"%s: %s: CGROUP: not removing system cg (%s), there may be attached stepds: %m\00", align 1
@__func__.cgroup_p_system_destroy = private unnamed_addr constant [24 x i8] c"cgroup_p_system_destroy\00", align 1

; Function Attrs: nounwind uwtable
define dso_local i32 @cgroup_p_system_destroy(i32 noundef %0) #0 {
  %2 = alloca i32, align 4
  %3 = alloca i32, align 4
  %4 = alloca i32, align 4
  %5 = alloca i32, align 4
  store i32 %0, ptr %3, align 4
  call void @llvm.lifetime.start.p0(i64 4, ptr %4) #7
  store i32 0, ptr %4, align 4
  %6 = load i32, ptr %3, align 4
  %7 = zext i32 %6 to i64
  %8 = getelementptr inbounds nuw [5 x [9 x %struct.xcgroup_t]], ptr @int_cg, i64 0, i64 %7
  %9 = getelementptr inbounds [9 x %struct.xcgroup_t], ptr %8, i64 0, i64 8
  %10 = getelementptr inbounds nuw %struct.xcgroup_t, ptr %9, i32 0, i32 2
  %11 = load ptr, ptr %10, align 8
  %12 = icmp ne ptr %11, null
  br i1 %12, label %14, label %13

13:                                               ; preds = %1
  store i32 0, ptr %2, align 4
  store i32 1, ptr %5, align 4
  br label %97

14:                                               ; preds = %1
  %15 = load i32, ptr %3, align 4
  switch i32 %15, label %23 [
    i32 1, label %16
    i32 2, label %16
    i32 0, label %17
    i32 3, label %17
    i32 4, label %17
  ]

16:                                               ; preds = %14, %14
  br label %26

17:                                               ; preds = %14, %14, %14
  %18 = load i32, ptr %3, align 4
  %19 = zext i32 %18 to i64
  %20 = getelementptr inbounds nuw [5 x ptr], ptr @g_cg_name, i64 0, i64 %19
  %21 = load ptr, ptr %20, align 8
  %22 = call i32 (ptr, ...) @error(ptr noundef @.str.16, ptr noundef %21)
  store i32 0, ptr %2, align 4
  store i32 1, ptr %5, align 4
  br label %97

23:                                               ; preds = %14
  %24 = load i32, ptr %3, align 4
  %25 = call i32 (ptr, ...) @error(ptr noundef @.str.9, i32 noundef %24)
  store i32 -1, ptr %2, align 4
  store i32 1, ptr %5, align 4
  br label %97

26:                                               ; preds = %16
  %27 = load i32, ptr %3, align 4
  %28 = zext i32 %27 to i64
  %29 = getelementptr inbounds nuw [5 x [9 x %struct.xcgroup_t]], ptr @int_cg, i64 0, i64 %28
  %30 = getelementptr inbounds [9 x %struct.xcgroup_t], ptr %29, i64 0, i64 0
  %31 = call i32 @getpid() #7
  %32 = call i32 @common_cgroup_move_process(ptr noundef %30, i32 noundef %31)
  store i32 %32, ptr %4, align 4
  %33 = load i32, ptr %4, align 4
  %34 = icmp ne i32 %33, 0
  br i1 %34, label %35, label %38

35:                                               ; preds = %26
  %36 = call i32 @getpid() #7
  %37 = call i32 (ptr, ...) @error(ptr noundef @.str.17, i32 noundef %36)
  br label %80

38:                                               ; preds = %26
  %39 = load i32, ptr %3, align 4
  %40 = zext i32 %39 to i64
  %41 = getelementptr inbounds nuw [5 x [9 x %struct.xcgroup_t]], ptr @int_cg, i64 0, i64 %40
  %42 = getelementptr inbounds [9 x %struct.xcgroup_t], ptr %41, i64 0, i64 8
  %43 = call i32 @getpid() #7
  %44 = load i32, ptr %3, align 4
  %45 = zext i32 %44 to i64
  %46 = getelementptr inbounds nuw [5 x ptr], ptr @g_cg_name, i64 0, i64 %45
  %47 = load ptr, ptr %46, align 8
  %48 = call zeroext i1 @common_cgroup_wait_pid_moved(ptr noundef %42, i32 noundef %43, ptr noundef %47)
  %49 = load i32, ptr %3, align 4
  %50 = zext i32 %49 to i64
  %51 = getelementptr inbounds nuw [5 x [9 x %struct.xcgroup_t]], ptr @int_cg, i64 0, i64 %50
  %52 = getelementptr inbounds [9 x %struct.xcgroup_t], ptr %51, i64 0, i64 8
  %53 = call i32 @common_cgroup_delete(ptr noundef %52)
  store i32 %53, ptr %4, align 4
  %54 = icmp ne i32 %53, 0
  br i1 %54, label %55, label %75

55:                                               ; preds = %38
  br label %56

56:                                               ; preds = %55
  %57 = load i64, ptr getelementptr inbounds nuw (%struct.slurm_conf_t, ptr @slurm_conf, i32 0, i32 42), align 8
  %58 = and i64 %57, 36028797018963968
  %59 = icmp ne i64 %58, 0
  br i1 %59, label %60, label %72

60:                                               ; preds = %56
  br label %61

61:                                               ; preds = %60
  %62 = call i32 @get_log_level()
  %63 = icmp sge i32 %62, 4
  br i1 %63, label %64, label %69

64:                                               ; preds = %61
  %65 = load i32, ptr %3, align 4
  %66 = zext i32 %65 to i64
  %67 = getelementptr inbounds nuw [5 x ptr], ptr @g_cg_name, i64 0, i64 %66
  %68 = load ptr, ptr %67, align 8
  call void (i32, ptr, ...) @log_var(i32 noundef 4, ptr noundef @.str.18, ptr noundef @plugin_type, ptr noundef @__func__.cgroup_p_system_destroy, ptr noundef %68)
  br label %69

69:                                               ; preds = %64, %61
  br label %70

70:                                               ; preds = %69
  br label %71

71:                                               ; preds = %70
  br label %72

72:                                               ; preds = %71, %56
  br label %73

73:                                               ; preds = %72
  br label %74

74:                                               ; preds = %73
  br label %80

75:                                               ; preds = %38
  %76 = load i32, ptr %3, align 4
  %77 = zext i32 %76 to i64
  %78 = getelementptr inbounds nuw [5 x [9 x %struct.xcgroup_t]], ptr @int_cg, i64 0, i64 %77
  %79 = getelementptr inbounds [9 x %struct.xcgroup_t], ptr %78, i64 0, i64 8
  call void @common_cgroup_destroy(ptr noundef %79)
  br label %80

80:                                               ; preds = %75, %74, %35
  %81 = load i32, ptr %4, align 4
  %82 = icmp eq i32 %81, 0
  br i1 %82, label %83, label %95

83:                                               ; preds = %80
  %84 = load i32, ptr %3, align 4
  %85 = zext i32 %84 to i64
  %86 = getelementptr inbounds nuw [5 x [9 x %struct.xcgroup_t]], ptr @int_cg, i64 0, i64 %85
  %87 = getelementptr inbounds [9 x %struct.xcgroup_t], ptr %86, i64 0, i64 1
  call void @common_cgroup_destroy(ptr noundef %87)
  %88 = load i32, ptr %3, align 4
  %89 = zext i32 %88 to i64
  %90 = getelementptr inbounds nuw [5 x [9 x %struct.xcgroup_t]], ptr @int_cg, i64 0, i64 %89
  %91 = getelementptr inbounds [9 x %struct.xcgroup_t], ptr %90, i64 0, i64 0
  call void @common_cgroup_destroy(ptr noundef %91)
  %92 = load i32, ptr %3, align 4
  %93 = zext i32 %92 to i64
  %94 = getelementptr inbounds nuw [5 x %struct.xcgroup_ns_t], ptr @g_cg_ns, i64 0, i64 %93
  call void @common_cgroup_ns_destroy(ptr noundef %94)
  br label %95

95:                                               ; preds = %83, %80
  %96 = load i32, ptr %4, align 4
  store i32 %96, ptr %2, align 4
  store i32 1, ptr %5, align 4
  br label %97

97:                                               ; preds = %95, %23, %17, %13
  call void @llvm.lifetime.end.p0(i64 4, ptr %4) #7
  %98 = load i32, ptr %2, align 4
  ret i32 %98
}