; Function Attrs: nounwind uwtable
define dso_local i32 @cgroup_p_system_destroy(i32 noundef %0) local_unnamed_addr #0 {
  %2 = zext i32 %0 to i64
  %3 = getelementptr inbounds nuw [5 x [9 x %struct.xcgroup_t]], ptr @int_cg, i64 0, i64 %2
  %4 = getelementptr inbounds nuw i8, ptr %3, i64 320
  %5 = getelementptr inbounds nuw i8, ptr %3, i64 336
  %6 = load ptr, ptr %5, align 8
  %.not = icmp eq ptr %6, null
  br i1 %.not, label %.thread, label %7

7:                                                ; preds = %1
  switch i32 %0, label %12 [
    i32 1, label %14
    i32 2, label %14
    i32 0, label %8
    i32 3, label %8
    i32 4, label %8
  ]

8:                                                ; preds = %7, %7, %7
  %9 = getelementptr inbounds nuw [5 x ptr], ptr @g_cg_name, i64 0, i64 %2
  %10 = load ptr, ptr %9, align 8
  %11 = tail call i32 (ptr, ...) @error(ptr noundef nonnull @.str.16, ptr noundef %10) #11
  br label %.thread

12:                                               ; preds = %7
  %13 = tail call i32 (ptr, ...) @error(ptr noundef nonnull @.str.9, i32 noundef %0) #11
  br label %.thread

14:                                               ; preds = %7, %7
  %15 = tail call i32 @getpid() #11
  %16 = tail call i32 @common_cgroup_move_process(ptr noundef nonnull %3, i32 noundef %15) #11
  %.not20 = icmp eq i32 %16, 0
  %17 = tail call i32 @getpid() #11
  br i1 %.not20, label %20, label %18

18:                                               ; preds = %14
  %19 = tail call i32 (ptr, ...) @error(ptr noundef nonnull @.str.17, i32 noundef %17) #11
  br label %.thread

20:                                               ; preds = %14
  %21 = getelementptr inbounds nuw [5 x ptr], ptr @g_cg_name, i64 0, i64 %2
  %22 = load ptr, ptr %21, align 8
  %23 = tail call zeroext i1 @common_cgroup_wait_pid_moved(ptr noundef nonnull %4, i32 noundef %17, ptr noundef %22) #11
  %24 = tail call i32 @common_cgroup_delete(ptr noundef nonnull %4) #11
  %.not21 = icmp eq i32 %24, 0
  br i1 %.not21, label %33, label %25

25:                                               ; preds = %20
  %26 = load i64, ptr getelementptr inbounds nuw (i8, ptr @slurm_conf, i64 320), align 8
  %27 = and i64 %26, 36028797018963968
  %.not22 = icmp eq i64 %27, 0
  br i1 %.not22, label %.thread, label %28

28:                                               ; preds = %25
  %29 = tail call i32 @get_log_level() #11
  %30 = icmp sgt i32 %29, 3
  br i1 %30, label %31, label %.thread

31:                                               ; preds = %28
  %32 = load ptr, ptr %21, align 8
  tail call void (i32, ptr, ...) @log_var(i32 noundef 4, ptr noundef nonnull @.str.18, ptr noundef nonnull @plugin_type, ptr noundef nonnull @__func__.cgroup_p_system_destroy, ptr noundef %32) #11
  br label %.thread

33:                                               ; preds = %20
  tail call void @common_cgroup_destroy(ptr noundef nonnull %4) #11
  %34 = getelementptr inbounds nuw i8, ptr %3, i64 40
  tail call void @common_cgroup_destroy(ptr noundef nonnull %34) #11
  tail call void @common_cgroup_destroy(ptr noundef nonnull %3) #11
  %35 = getelementptr inbounds nuw [5 x %struct.xcgroup_ns_t], ptr @g_cg_ns, i64 0, i64 %2
  tail call void @common_cgroup_ns_destroy(ptr noundef nonnull %35) #11
  br label %.thread

.thread:                                          ; preds = %25, %28, %31, %18, %33, %1, %12, %8
  %.017 = phi i32 [ -1, %12 ], [ 0, %8 ], [ 0, %1 ], [ 0, %33 ], [ %24, %25 ], [ %24, %28 ], [ %24, %31 ], [ %16, %18 ]
  ret i32 %.017
}